; ModuleID = '35/1418.c'
source_filename = "35/1418.c"
target datalayout = "e-m:e-p270:32:32-p271:32:32-p272:64:64-i64:64-f80:128-n8:16:32:64-S128"
target triple = "x86_64-pc-linux-gnu"

@.str = private unnamed_addr constant [6 x i8] c"%d,%d\00", align 1
@.str.1 = private unnamed_addr constant [3 x i8] c"%d\00", align 1
@.str.2 = private unnamed_addr constant [6 x i8] c"%d+%d\00", align 1
@.str.3 = private unnamed_addr constant [3 x i8] c"No\00", align 1

; Function Attrs: noinline nounwind uwtable
define dso_local i32 @main() #0 {
  %1 = alloca i32, align 4
  %2 = alloca [7 x [7 x i32]], align 16
  %3 = alloca i32, align 4
  %4 = alloca i32, align 4
  %5 = alloca i32, align 4
  %6 = alloca i32, align 4
  %7 = alloca i32, align 4
  %8 = alloca i32, align 4
  %9 = alloca i32, align 4
  store i32 0, i32* %1, align 4
  store i32 0, i32* %8, align 4
  store i32 0, i32* %9, align 4
  %10 = call i32 (i8*, ...) @__isoc99_scanf(i8* getelementptr inbounds ([6 x i8], [6 x i8]* @.str, i64 0, i64 0), i32* %3, i32* %4)
  store i32 0, i32* %5, align 4
  br label %11

11:                                               ; preds = %32, %0
  %12 = load i32, i32* %5, align 4
  %13 = load i32, i32* %3, align 4
  %14 = icmp slt i32 %12, %13
  br i1 %14, label %15, label %35

15:                                               ; preds = %11
  store i32 0, i32* %6, align 4
  br label %16

16:                                               ; preds = %28, %15
  %17 = load i32, i32* %6, align 4
  %18 = load i32, i32* %4, align 4
  %19 = icmp slt i32 %17, %18
  br i1 %19, label %20, label %31

20:                                               ; preds = %16
  %21 = load i32, i32* %5, align 4
  %22 = sext i32 %21 to i64
  %23 = getelementptr inbounds [7 x [7 x i32]], [7 x [7 x i32]]* %2, i64 0, i64 %22
  %24 = load i32, i32* %6, align 4
  %25 = sext i32 %24 to i64
  %26 = getelementptr inbounds [7 x i32], [7 x i32]* %23, i64 0, i64 %25
  %27 = call i32 (i8*, ...) @__isoc99_scanf(i8* getelementptr inbounds ([3 x i8], [3 x i8]* @.str.1, i64 0, i64 0), i32* %26)
  br label %28

28:                                               ; preds = %20
  %29 = load i32, i32* %6, align 4
  %30 = add nsw i32 %29, 1
  store i32 %30, i32* %6, align 4
  br label %16

31:                                               ; preds = %16
  br label %32

32:                                               ; preds = %31
  %33 = load i32, i32* %5, align 4
  %34 = add nsw i32 %33, 1
  store i32 %34, i32* %5, align 4
  br label %11

35:                                               ; preds = %11
  store i32 0, i32* %5, align 4
  br label %36

36:                                               ; preds = %127, %35
  %37 = load i32, i32* %5, align 4
  %38 = load i32, i32* %3, align 4
  %39 = icmp slt i32 %37, %38
  br i1 %39, label %40, label %130

40:                                               ; preds = %36
  store i32 0, i32* %6, align 4
  br label %41

41:                                               ; preds = %114, %40
  %42 = load i32, i32* %6, align 4
  %43 = load i32, i32* %4, align 4
  %44 = icmp slt i32 %42, %43
  br i1 %44, label %45, label %117

45:                                               ; preds = %41
  store i32 0, i32* %8, align 4
  store i32 0, i32* %9, align 4
  store i32 0, i32* %7, align 4
  br label %46

46:                                               ; preds = %70, %45
  %47 = load i32, i32* %7, align 4
  %48 = load i32, i32* %4, align 4
  %49 = icmp slt i32 %47, %48
  br i1 %49, label %50, label %73

50:                                               ; preds = %46
  %51 = load i32, i32* %5, align 4
  %52 = sext i32 %51 to i64
  %53 = getelementptr inbounds [7 x [7 x i32]], [7 x [7 x i32]]* %2, i64 0, i64 %52
  %54 = load i32, i32* %6, align 4
  %55 = sext i32 %54 to i64
  %56 = getelementptr inbounds [7 x i32], [7 x i32]* %53, i64 0, i64 %55
  %57 = load i32, i32* %56, align 4
  %58 = load i32, i32* %5, align 4
  %59 = sext i32 %58 to i64
  %60 = getelementptr inbounds [7 x [7 x i32]], [7 x [7 x i32]]* %2, i64 0, i64 %59
  %61 = load i32, i32* %7, align 4
  %62 = sext i32 %61 to i64
  %63 = getelementptr inbounds [7 x i32], [7 x i32]* %60, i64 0, i64 %62
  %64 = load i32, i32* %63, align 4
  %65 = icmp sge i32 %57, %64
  br i1 %65, label %66, label %69

66:                                               ; preds = %50
  %67 = load i32, i32* %8, align 4
  %68 = add nsw i32 %67, 1
  store i32 %68, i32* %8, align 4
  br label %69

69:                                               ; preds = %66, %50
  br label %70

70:                                               ; preds = %69
  %71 = load i32, i32* %7, align 4
  %72 = add nsw i32 %71, 1
  store i32 %72, i32* %7, align 4
  br label %46

73:                                               ; preds = %46
  store i32 0, i32* %7, align 4
  br label %74

74:                                               ; preds = %98, %73
  %75 = load i32, i32* %7, align 4
  %76 = load i32, i32* %3, align 4
  %77 = icmp slt i32 %75, %76
  br i1 %77, label %78, label %101

78:                                               ; preds = %74
  %79 = load i32, i32* %5, align 4
  %80 = sext i32 %79 to i64
  %81 = getelementptr inbounds [7 x [7 x i32]], [7 x [7 x i32]]* %2, i64 0, i64 %80
  %82 = load i32, i32* %6, align 4
  %83 = sext i32 %82 to i64
  %84 = getelementptr inbounds [7 x i32], [7 x i32]* %81, i64 0, i64 %83
  %85 = load i32, i32* %84, align 4
  %86 = load i32, i32* %7, align 4
  %87 = sext i32 %86 to i64
  %88 = getelementptr inbounds [7 x [7 x i32]], [7 x [7 x i32]]* %2, i64 0, i64 %87
  %89 = load i32, i32* %6, align 4
  %90 = sext i32 %89 to i64
  %91 = getelementptr inbounds [7 x i32], [7 x i32]* %88, i64 0, i64 %90
  %92 = load i32, i32* %91, align 4
  %93 = icmp sle i32 %85, %92
  br i1 %93, label %94, label %97

94:                                               ; preds = %78
  %95 = load i32, i32* %9, align 4
  %96 = add nsw i32 %95, 1
  store i32 %96, i32* %9, align 4
  br label %97

97:                                               ; preds = %94, %78
  br label %98

98:                                               ; preds = %97
  %99 = load i32, i32* %7, align 4
  %100 = add nsw i32 %99, 1
  store i32 %100, i32* %7, align 4
  br label %74

101:                                              ; preds = %74
  %102 = load i32, i32* %8, align 4
  %103 = load i32, i32* %4, align 4
  %104 = icmp eq i32 %102, %103
  br i1 %104, label %105, label %113

105:                                              ; preds = %101
  %106 = load i32, i32* %9, align 4
  %107 = load i32, i32* %3, align 4
  %108 = icmp eq i32 %106, %107
  br i1 %108, label %109, label %113

109:                                              ; preds = %105
  %110 = load i32, i32* %5, align 4
  %111 = load i32, i32* %6, align 4
  %112 = call i32 (i8*, ...) @printf(i8* getelementptr inbounds ([6 x i8], [6 x i8]* @.str.2, i64 0, i64 0), i32 %110, i32 %111)
  br label %117

113:                                              ; preds = %105, %101
  br label %114

114:                                              ; preds = %113
  %115 = load i32, i32* %6, align 4
  %116 = add nsw i32 %115, 1
  store i32 %116, i32* %6, align 4
  br label %41

117:                                              ; preds = %109, %41
  %118 = load i32, i32* %8, align 4
  %119 = load i32, i32* %4, align 4
  %120 = icmp eq i32 %118, %119
  br i1 %120, label %121, label %126

121:                                              ; preds = %117
  %122 = load i32, i32* %9, align 4
  %123 = load i32, i32* %3, align 4
  %124 = icmp eq i32 %122, %123
  br i1 %124, label %125, label %126

125:                                              ; preds = %121
  br label %130

126:                                              ; preds = %121, %117
  br label %127

127:                                              ; preds = %126
  %128 = load i32, i32* %5, align 4
  %129 = add nsw i32 %128, 1
  store i32 %129, i32* %5, align 4
  br label %36

130:                                              ; preds = %125, %36
  %131 = load i32, i32* %8, align 4
  %132 = load i32, i32* %4, align 4
  %133 = icmp ne i32 %131, %132
  br i1 %133, label %138, label %134

134:                                              ; preds = %130
  %135 = load i32, i32* %9, align 4
  %136 = load i32, i32* %3, align 4
  %137 = icmp ne i32 %135, %136
  br i1 %137, label %138, label %140

138:                                              ; preds = %134, %130
  %139 = call i32 (i8*, ...) @printf(i8* getelementptr inbounds ([3 x i8], [3 x i8]* @.str.3, i64 0, i64 0))
  br label %140

140:                                              ; preds = %138, %134
  ret i32 0
}

declare dso_local i32 @__isoc99_scanf(i8*, ...) #1

declare dso_local i32 @printf(i8*, ...) #1


!llvm.module.flags = !{!0}
!llvm.ident = !{!1}

!0 = !{i32 1, !"wchar_size", i32 4}
!1 = !{!"clang version 10.0.0-4ubuntu1 "}
